target datalayout = "e-m:e-p270:32:32-p271:32:32-p272:64:64-i64:64-i128:128-f80:128-n8:16:32:64-S128"
target triple = "x86_64-pc-linux-gnu"

%struct._7z_digests = type { ptr, ptr }

; Function Attrs: inlinehint nounwind uwtable
define internal i32 @archive_le32dec(ptr noundef %0) #6 {
  %2 = alloca ptr, align 8
  %3 = alloca ptr, align 8
  %4 = alloca i32, align 4
  %5 = alloca i32, align 4
  %6 = alloca i32, align 4
  %7 = alloca i32, align 4
  store ptr %0, ptr %2, align 8, !tbaa !103
  call void @llvm.lifetime.start.p0(i64 8, ptr %3) #12
  %8 = load ptr, ptr %2, align 8, !tbaa !103
  store ptr %8, ptr %3, align 8, !tbaa !43
  call void @llvm.lifetime.start.p0(i64 4, ptr %4) #12
  %9 = load ptr, ptr %3, align 8, !tbaa !43
  %10 = getelementptr inbounds i8, ptr %9, i64 3
  %11 = load i8, ptr %10, align 1, !tbaa !44
  %12 = zext i8 %11 to i32
  store i32 %12, ptr %4, align 4, !tbaa !11
  call void @llvm.lifetime.start.p0(i64 4, ptr %5) #12
  %13 = load ptr, ptr %3, align 8, !tbaa !43
  %14 = getelementptr inbounds i8, ptr %13, i64 2
  %15 = load i8, ptr %14, align 1, !tbaa !44
  %16 = zext i8 %15 to i32
  store i32 %16, ptr %5, align 4, !tbaa !11
  call void @llvm.lifetime.start.p0(i64 4, ptr %6) #12
  %17 = load ptr, ptr %3, align 8, !tbaa !43
  %18 = getelementptr inbounds i8, ptr %17, i64 1
  %19 = load i8, ptr %18, align 1, !tbaa !44
  %20 = zext i8 %19 to i32
  store i32 %20, ptr %6, align 4, !tbaa !11
  call void @llvm.lifetime.start.p0(i64 4, ptr %7) #12
  %21 = load ptr, ptr %3, align 8, !tbaa !43
  %22 = getelementptr inbounds i8, ptr %21, i64 0
  %23 = load i8, ptr %22, align 1, !tbaa !44
  %24 = zext i8 %23 to i32
  store i32 %24, ptr %7, align 4, !tbaa !11
  %25 = load i32, ptr %4, align 4, !tbaa !11
  %26 = shl i32 %25, 24
  %27 = load i32, ptr %5, align 4, !tbaa !11
  %28 = shl i32 %27, 16
  %29 = or i32 %26, %28
  %30 = load i32, ptr %6, align 4, !tbaa !11
  %31 = shl i32 %30, 8
  %32 = or i32 %29, %31
  %33 = load i32, ptr %7, align 4, !tbaa !11
  %34 = or i32 %32, %33
  call void @llvm.lifetime.end.p0(i64 4, ptr %7) #12
  call void @llvm.lifetime.end.p0(i64 4, ptr %6) #12
  call void @llvm.lifetime.end.p0(i64 4, ptr %5) #12
  call void @llvm.lifetime.end.p0(i64 4, ptr %4) #12
  call void @llvm.lifetime.end.p0(i64 8, ptr %3) #12
  ret i32 %34
}

; Function Attrs: nounwind uwtable
define internal i32 @read_Bools(ptr noundef %0, ptr noundef %1, i64 noundef %2) #0 {
  %4 = alloca i32, align 4
  %5 = alloca ptr, align 8
  %6 = alloca ptr, align 8
  %7 = alloca i64, align 8
  %8 = alloca ptr, align 8
  %9 = alloca i32, align 4
  %10 = alloca i32, align 4
  %11 = alloca i32, align 4
  %12 = alloca i32, align 4
  store ptr %0, ptr %5, align 8, !tbaa !9
  store ptr %1, ptr %6, align 8, !tbaa !43
  store i64 %2, ptr %7, align 8, !tbaa !45
  call void @llvm.lifetime.start.p0(i64 8, ptr %8) #12
  call void @llvm.lifetime.start.p0(i64 4, ptr %9) #12
  call void @llvm.lifetime.start.p0(i64 4, ptr %10) #12
  store i32 0, ptr %10, align 4, !tbaa !11
  call void @llvm.lifetime.start.p0(i64 4, ptr %11) #12
  store i32 0, ptr %11, align 4, !tbaa !11
  store i32 0, ptr %9, align 4, !tbaa !11
  br label %13

13:                                               ; preds = %43, %3
  %14 = load i32, ptr %9, align 4, !tbaa !11
  %15 = zext i32 %14 to i64
  %16 = load i64, ptr %7, align 8, !tbaa !45
  %17 = icmp ult i64 %15, %16
  br i1 %17, label %18, label %46

18:                                               ; preds = %13
  %19 = load i32, ptr %10, align 4, !tbaa !11
  %20 = icmp eq i32 %19, 0
  br i1 %20, label %21, label %30

21:                                               ; preds = %18
  %22 = load ptr, ptr %5, align 8, !tbaa !9
  %23 = call ptr @header_bytes(ptr noundef %22, i64 noundef 1)
  store ptr %23, ptr %8, align 8, !tbaa !43
  %24 = icmp eq ptr %23, null
  br i1 %24, label %25, label %26

25:                                               ; preds = %21
  store i32 -1, ptr %4, align 4
  store i32 1, ptr %12, align 4
  br label %47

26:                                               ; preds = %21
  %27 = load ptr, ptr %8, align 8, !tbaa !43
  %28 = load i8, ptr %27, align 1, !tbaa !44
  %29 = zext i8 %28 to i32
  store i32 %29, ptr %11, align 4, !tbaa !11
  store i32 128, ptr %10, align 4, !tbaa !11
  br label %30

30:                                               ; preds = %26, %18
  %31 = load i32, ptr %11, align 4, !tbaa !11
  %32 = load i32, ptr %10, align 4, !tbaa !11
  %33 = and i32 %31, %32
  %34 = icmp ne i32 %33, 0
  %35 = select i1 %34, i32 1, i32 0
  %36 = trunc i32 %35 to i8
  %37 = load ptr, ptr %6, align 8, !tbaa !43
  %38 = load i32, ptr %9, align 4, !tbaa !11
  %39 = zext i32 %38 to i64
  %40 = getelementptr inbounds nuw i8, ptr %37, i64 %39
  store i8 %36, ptr %40, align 1, !tbaa !44
  %41 = load i32, ptr %10, align 4, !tbaa !11
  %42 = lshr i32 %41, 1
  store i32 %42, ptr %10, align 4, !tbaa !11
  br label %43

43:                                               ; preds = %30
  %44 = load i32, ptr %9, align 4, !tbaa !11
  %45 = add i32 %44, 1
  store i32 %45, ptr %9, align 4, !tbaa !11
  br label %13, !llvm.loop !282

46:                                               ; preds = %13
  store i32 0, ptr %4, align 4
  store i32 1, ptr %12, align 4
  br label %47

47:                                               ; preds = %46, %25
  call void @llvm.lifetime.end.p0(i64 4, ptr %11) #12
  call void @llvm.lifetime.end.p0(i64 4, ptr %10) #12
  call void @llvm.lifetime.end.p0(i64 4, ptr %9) #12
  call void @llvm.lifetime.end.p0(i64 8, ptr %8) #12
  %48 = load i32, ptr %4, align 4
  ret i32 %48
}

; Function Attrs: nounwind uwtable
define internal i32 @read_Digests(ptr noundef %0, ptr noundef %1, i64 noundef %2) #0 {
  %4 = alloca i32, align 4
  %5 = alloca ptr, align 8
  %6 = alloca ptr, align 8
  %7 = alloca i64, align 8
  %8 = alloca ptr, align 8
  %9 = alloca i32, align 4
  %10 = alloca i32, align 4
  store ptr %0, ptr %5, align 8, !tbaa !9
  store ptr %1, ptr %6, align 8, !tbaa !279
  store i64 %2, ptr %7, align 8, !tbaa !45
  call void @llvm.lifetime.start.p0(i64 8, ptr %8) #12
  call void @llvm.lifetime.start.p0(i64 4, ptr %9) #12
  %11 = load i64, ptr %7, align 8, !tbaa !45
  %12 = icmp eq i64 %11, 0
  br i1 %12, label %13, label %14

13:                                               ; preds = %3
  store i32 -1, ptr %4, align 4
  store i32 1, ptr %10, align 4
  br label %94

14:                                               ; preds = %3
  %15 = load ptr, ptr %6, align 8, !tbaa !279
  call void @llvm.memset.p0.i64(ptr align 8 %15, i8 0, i64 16, i1 false)
  %16 = load i64, ptr %7, align 8, !tbaa !45
  %17 = call noalias ptr @malloc(i64 noundef %16) #16
  %18 = load ptr, ptr %6, align 8, !tbaa !279
  %19 = getelementptr inbounds nuw %struct._7z_digests, ptr %18, i32 0, i32 0
  store ptr %17, ptr %19, align 8, !tbaa !260
  %20 = load ptr, ptr %6, align 8, !tbaa !279
  %21 = getelementptr inbounds nuw %struct._7z_digests, ptr %20, i32 0, i32 0
  %22 = load ptr, ptr %21, align 8, !tbaa !260
  %23 = icmp eq ptr %22, null
  br i1 %23, label %24, label %25

24:                                               ; preds = %14
  store i32 -1, ptr %4, align 4
  store i32 1, ptr %10, align 4
  br label %94

25:                                               ; preds = %14
  %26 = load ptr, ptr %5, align 8, !tbaa !9
  %27 = call ptr @header_bytes(ptr noundef %26, i64 noundef 1)
  store ptr %27, ptr %8, align 8, !tbaa !43
  %28 = icmp eq ptr %27, null
  br i1 %28, label %29, label %30

29:                                               ; preds = %25
  store i32 -1, ptr %4, align 4
  store i32 1, ptr %10, align 4
  br label %94

30:                                               ; preds = %25
  %31 = load ptr, ptr %8, align 8, !tbaa !43
  %32 = load i8, ptr %31, align 1, !tbaa !44
  %33 = zext i8 %32 to i32
  %34 = icmp eq i32 %33, 0
  br i1 %34, label %35, label %45

35:                                               ; preds = %30
  %36 = load ptr, ptr %5, align 8, !tbaa !9
  %37 = load ptr, ptr %6, align 8, !tbaa !279
  %38 = getelementptr inbounds nuw %struct._7z_digests, ptr %37, i32 0, i32 0
  %39 = load ptr, ptr %38, align 8, !tbaa !260
  %40 = load i64, ptr %7, align 8, !tbaa !45
  %41 = call i32 @read_Bools(ptr noundef %36, ptr noundef %39, i64 noundef %40)
  %42 = icmp slt i32 %41, 0
  br i1 %42, label %43, label %44

43:                                               ; preds = %35
  store i32 -1, ptr %4, align 4
  store i32 1, ptr %10, align 4
  br label %94

44:                                               ; preds = %35
  br label %50

45:                                               ; preds = %30
  %46 = load ptr, ptr %6, align 8, !tbaa !279
  %47 = getelementptr inbounds nuw %struct._7z_digests, ptr %46, i32 0, i32 0
  %48 = load ptr, ptr %47, align 8, !tbaa !260
  %49 = load i64, ptr %7, align 8, !tbaa !45
  call void @llvm.memset.p0.i64(ptr align 1 %48, i8 1, i64 %49, i1 false)
  br label %50

50:                                               ; preds = %45, %44
  %51 = load i64, ptr %7, align 8, !tbaa !45
  %52 = call noalias ptr @calloc(i64 noundef %51, i64 noundef 4) #13
  %53 = load ptr, ptr %6, align 8, !tbaa !279
  %54 = getelementptr inbounds nuw %struct._7z_digests, ptr %53, i32 0, i32 1
  store ptr %52, ptr %54, align 8, !tbaa !261
  %55 = load ptr, ptr %6, align 8, !tbaa !279
  %56 = getelementptr inbounds nuw %struct._7z_digests, ptr %55, i32 0, i32 1
  %57 = load ptr, ptr %56, align 8, !tbaa !261
  %58 = icmp eq ptr %57, null
  br i1 %58, label %59, label %60

59:                                               ; preds = %50
  store i32 -1, ptr %4, align 4
  store i32 1, ptr %10, align 4
  br label %94

60:                                               ; preds = %50
  store i32 0, ptr %9, align 4, !tbaa !11
  br label %61

61:                                               ; preds = %90, %60
  %62 = load i32, ptr %9, align 4, !tbaa !11
  %63 = zext i32 %62 to i64
  %64 = load i64, ptr %7, align 8, !tbaa !45
  %65 = icmp ult i64 %63, %64
  br i1 %65, label %66, label %93

66:                                               ; preds = %61
  %67 = load ptr, ptr %6, align 8, !tbaa !279
  %68 = getelementptr inbounds nuw %struct._7z_digests, ptr %67, i32 0, i32 0
  %69 = load ptr, ptr %68, align 8, !tbaa !260
  %70 = load i32, ptr %9, align 4, !tbaa !11
  %71 = zext i32 %70 to i64
  %72 = getelementptr inbounds nuw i8, ptr %69, i64 %71
  %73 = load i8, ptr %72, align 1, !tbaa !44
  %74 = icmp ne i8 %73, 0
  br i1 %74, label %75, label %89

75:                                               ; preds = %66
  %76 = load ptr, ptr %5, align 8, !tbaa !9
  %77 = call ptr @header_bytes(ptr noundef %76, i64 noundef 4)
  store ptr %77, ptr %8, align 8, !tbaa !43
  %78 = icmp eq ptr %77, null
  br i1 %78, label %79, label %80

79:                                               ; preds = %75
  store i32 -1, ptr %4, align 4
  store i32 1, ptr %10, align 4
  br label %94

80:                                               ; preds = %75
  %81 = load ptr, ptr %8, align 8, !tbaa !43
  %82 = call i32 @archive_le32dec(ptr noundef %81)
  %83 = load ptr, ptr %6, align 8, !tbaa !279
  %84 = getelementptr inbounds nuw %struct._7z_digests, ptr %83, i32 0, i32 1
  %85 = load ptr, ptr %84, align 8, !tbaa !261
  %86 = load i32, ptr %9, align 4, !tbaa !11
  %87 = zext i32 %86 to i64
  %88 = getelementptr inbounds nuw i32, ptr %85, i64 %87
  store i32 %82, ptr %88, align 4, !tbaa !11
  br label %89

89:                                               ; preds = %80, %66
  br label %90

90:                                               ; preds = %89
  %91 = load i32, ptr %9, align 4, !tbaa !11
  %92 = add i32 %91, 1
  store i32 %92, ptr %9, align 4, !tbaa !11
  br label %61, !llvm.loop !281

93:                                               ; preds = %61
  store i32 0, ptr %4, align 4
  store i32 1, ptr %10, align 4
  br label %94

94:                                               ; preds = %93, %79, %59, %43, %29, %24, %13
  call void @llvm.lifetime.end.p0(i64 4, ptr %9) #12
  call void @llvm.lifetime.end.p0(i64 8, ptr %8) #12
  %95 = load i32, ptr %4, align 4
  ret i32 %95
}