; Function Attrs: nounwind uwtable
define internal fastcc range(i32 -1, 1) i32 @read_Digests(ptr noundef %0, ptr noundef captures(none) %1, i64 noundef %2) unnamed_addr #0 {
  %4 = icmp eq i64 %2, 0
  br i1 %4, label %read_Bools.exit.thread, label %5

5:                                                ; preds = %3
  %6 = getelementptr inbounds nuw i8, ptr %1, i64 8
  store i64 0, ptr %6, align 8
  %7 = tail call noalias ptr @malloc(i64 noundef %2) #20
  store ptr %7, ptr %1, align 8, !tbaa !162
  %8 = icmp eq ptr %7, null
  br i1 %8, label %read_Bools.exit.thread, label %9

9:                                                ; preds = %5
  %10 = tail call fastcc ptr @header_bytes(ptr noundef %0, i64 noundef 1)
  %11 = icmp eq ptr %10, null
  br i1 %11, label %read_Bools.exit.thread, label %12

12:                                               ; preds = %9
  %13 = load i8, ptr %10, align 1, !tbaa !37
  %14 = icmp eq i8 %13, 0
  %15 = load ptr, ptr %1, align 8, !tbaa !162
  br i1 %14, label %.lr.ph.i, label %32

.lr.ph.i:                                         ; preds = %12, %24
  %16 = phi i64 [ %30, %24 ], [ 0, %12 ]
  %.019.i = phi i32 [ %.1.i, %24 ], [ 0, %12 ]
  %.01118.i = phi i32 [ %28, %24 ], [ 0, %12 ]
  %.01317.i = phi i32 [ %29, %24 ], [ 0, %12 ]
  %17 = icmp eq i32 %.01118.i, 0
  br i1 %17, label %18, label %24

18:                                               ; preds = %.lr.ph.i
  %19 = tail call fastcc ptr @header_bytes(ptr noundef %0, i64 noundef 1)
  %20 = icmp eq ptr %19, null
  br i1 %20, label %read_Bools.exit.thread, label %21

21:                                               ; preds = %18
  %22 = load i8, ptr %19, align 1, !tbaa !37
  %23 = zext i8 %22 to i32
  br label %24

24:                                               ; preds = %21, %.lr.ph.i
  %.112.i = phi i32 [ 128, %21 ], [ %.01118.i, %.lr.ph.i ]
  %.1.i = phi i32 [ %23, %21 ], [ %.019.i, %.lr.ph.i ]
  %25 = and i32 %.1.i, %.112.i
  %.not.i = icmp ne i32 %25, 0
  %26 = zext i1 %.not.i to i8
  %27 = getelementptr inbounds nuw i8, ptr %15, i64 %16
  store i8 %26, ptr %27, align 1, !tbaa !37
  %28 = lshr i32 %.112.i, 1
  %29 = add i32 %.01317.i, 1
  %30 = zext i32 %29 to i64
  %31 = icmp ugt i64 %2, %30
  br i1 %31, label %.lr.ph.i, label %read_Bools.exit, !llvm.loop !269

32:                                               ; preds = %12
  tail call void @llvm.memset.p0.i64(ptr align 1 %15, i8 1, i64 %2, i1 false)
  br label %read_Bools.exit

read_Bools.exit:                                  ; preds = %24, %32
  %33 = tail call noalias ptr @calloc(i64 noundef %2, i64 noundef 4) #18
  %34 = getelementptr inbounds nuw i8, ptr %1, i64 8
  store ptr %33, ptr %34, align 8, !tbaa !163
  %35 = icmp eq ptr %33, null
  br i1 %35, label %read_Bools.exit.thread, label %.preheader

.preheader:                                       ; preds = %read_Bools.exit, %47
  %36 = phi i64 [ %49, %47 ], [ 0, %read_Bools.exit ]
  %.031 = phi i32 [ %48, %47 ], [ 0, %read_Bools.exit ]
  %37 = load ptr, ptr %1, align 8, !tbaa !162
  %38 = getelementptr inbounds nuw i8, ptr %37, i64 %36
  %39 = load i8, ptr %38, align 1, !tbaa !37
  %.not = icmp eq i8 %39, 0
  br i1 %.not, label %47, label %40

40:                                               ; preds = %.preheader
  %41 = tail call fastcc ptr @header_bytes(ptr noundef %0, i64 noundef 4)
  %42 = icmp eq ptr %41, null
  br i1 %42, label %read_Bools.exit.thread, label %43

43:                                               ; preds = %40
  %44 = load i32, ptr %41, align 1
  %45 = load ptr, ptr %34, align 8, !tbaa !163
  %46 = getelementptr inbounds nuw i32, ptr %45, i64 %36
  store i32 %44, ptr %46, align 4, !tbaa !76
  br label %47

47:                                               ; preds = %.preheader, %43
  %48 = add i32 %.031, 1
  %49 = zext i32 %48 to i64
  %50 = icmp ugt i64 %2, %49
  br i1 %50, label %.preheader, label %read_Bools.exit.thread, !llvm.loop !270

read_Bools.exit.thread:                           ; preds = %18, %47, %40, %read_Bools.exit, %9, %5, %3
  %.024 = phi i32 [ -1, %3 ], [ -1, %5 ], [ -1, %9 ], [ -1, %read_Bools.exit ], [ 0, %47 ], [ -1, %40 ], [ -1, %18 ]
  ret i32 %.024
}